target datalayout = "e-m:e-p270:32:32-p271:32:32-p272:64:64-i64:64-i128:128-f80:128-n8:16:32:64-S128"
target triple = "x86_64-pc-linux-gnu"

@.str.82 = private unnamed_addr constant [5 x i8] c"str\00\00", align 1
@.str.83 = private unnamed_addr constant [4 x i8] c"str\00", align 1
@PyExc_AssertionError = external global ptr, align 8
@.str.84 = private unnamed_addr constant [67 x i8] c"Python string ending in NULL should not compare equal to c string.\00", align 1

; Function Attrs: inlinehint nounwind uwtable
define internal void @Py_DECREF(ptr noundef %0) #3 {
  %2 = alloca ptr, align 8
  store ptr %0, ptr %2, align 8, !tbaa !3
  %3 = load ptr, ptr %2, align 8, !tbaa !3
  call void @_Py_DecRef(ptr noundef %3)
  ret void
}

; Function Attrs: nounwind uwtable
define internal ptr @test_unicode_compare_with_ascii(ptr noundef %0, ptr noundef %1) #0 {
  %3 = alloca ptr, align 8
  %4 = alloca ptr, align 8
  %5 = alloca ptr, align 8
  %6 = alloca ptr, align 8
  %7 = alloca i32, align 4
  %8 = alloca i32, align 4
  store ptr %0, ptr %4, align 8, !tbaa !3
  store ptr %1, ptr %5, align 8, !tbaa !3
  call void @llvm.lifetime.start.p0(i64 8, ptr %6) #7
  %9 = call ptr @PyUnicode_FromStringAndSize(ptr noundef @.str.82, i64 noundef 4)
  store ptr %9, ptr %6, align 8, !tbaa !3
  call void @llvm.lifetime.start.p0(i64 4, ptr %7) #7
  %10 = load ptr, ptr %6, align 8, !tbaa !3
  %11 = icmp eq ptr %10, null
  br i1 %11, label %12, label %13

12:                                               ; preds = %2
  store ptr null, ptr %3, align 8
  store i32 1, ptr %8, align 4
  br label %23

13:                                               ; preds = %2
  %14 = load ptr, ptr %6, align 8, !tbaa !3
  %15 = call i32 @PyUnicode_CompareWithASCIIString(ptr noundef %14, ptr noundef @.str.83)
  store i32 %15, ptr %7, align 4, !tbaa !10
  %16 = load ptr, ptr %6, align 8, !tbaa !3
  call void @Py_DECREF(ptr noundef %16)
  %17 = load i32, ptr %7, align 4, !tbaa !10
  %18 = icmp ne i32 %17, 0
  br i1 %18, label %21, label %19

19:                                               ; preds = %13
  %20 = load ptr, ptr @PyExc_AssertionError, align 8, !tbaa !3
  call void @PyErr_SetString(ptr noundef %20, ptr noundef @.str.84)
  store ptr null, ptr %3, align 8
  store i32 1, ptr %8, align 4
  br label %23

21:                                               ; preds = %13
  %22 = call ptr @Py_GetConstantBorrowed(i32 noundef 0)
  store ptr %22, ptr %3, align 8
  store i32 1, ptr %8, align 4
  br label %23

23:                                               ; preds = %21, %19, %12
  call void @llvm.lifetime.end.p0(i64 4, ptr %7) #7
  call void @llvm.lifetime.end.p0(i64 8, ptr %6) #7
  %24 = load ptr, ptr %3, align 8
  ret ptr %24
}