; Function Attrs: nounwind uwtable
define internal ptr @test_unicode_compare_with_ascii(ptr readnone captures(none) %0, ptr readnone captures(none) %1) #0 {
  %3 = tail call ptr @PyUnicode_FromStringAndSize(ptr noundef nonnull @.str.82, i64 noundef 4) #4
  %4 = icmp eq ptr %3, null
  br i1 %4, label %11, label %5

5:                                                ; preds = %2
  %6 = tail call i32 @PyUnicode_CompareWithASCIIString(ptr noundef nonnull %3, ptr noundef nonnull @.str.83) #4
  tail call void @_Py_DecRef(ptr noundef nonnull %3) #4
  %.not = icmp eq i32 %6, 0
  br i1 %.not, label %7, label %9

7:                                                ; preds = %5
  %8 = load ptr, ptr @PyExc_AssertionError, align 8, !tbaa !8
  tail call void @PyErr_SetString(ptr noundef %8, ptr noundef nonnull @.str.84) #4
  br label %11

9:                                                ; preds = %5
  %10 = tail call ptr @Py_GetConstantBorrowed(i32 noundef 0) #4
  br label %11

11:                                               ; preds = %2, %9, %7
  %.0 = phi ptr [ %10, %9 ], [ null, %7 ], [ null, %2 ]
  ret ptr %.0
}